#include <math.h>
#include <stdio.h>
#include <stdlib.h>
#include <string.h>
#include <iostream>
using namespace std;

int main()
{
int w,i,W,day=13;
cin>>w;
for(i=0;i<=11;i++)                         //??i+1????????
{
  if(i==1||i==3||i==5||i==7||i==8||i==10)   
  day=day+31;
  else if(i==2)
  day=day+28;
  else if(i==0)
  day=day+0;
  else
  day=day+30;                              //?????i+1?????
  W=(w+((day-1)%7))%7;                     //??i+1??13?????
  if(W==5)
  cout<<i+1<<'\n';                         //???????????
}
return 0;
}