; ModuleID = '50/2560.cpp'
source_filename = "50/2560.cpp"
target datalayout = "e-m:e-p270:32:32-p271:32:32-p272:64:64-i64:64-f80:128-n8:16:32:64-S128"
target triple = "x86_64-pc-linux-gnu"

%"class.std::ios_base::Init" = type { i8 }
%"class.std::basic_istream" = type { i32 (...)**, i64, %"class.std::basic_ios" }
%"class.std::basic_ios" = type { %"class.std::ios_base", %"class.std::basic_ostream"*, i8, i8, %"class.std::basic_streambuf"*, %"class.std::ctype"*, %"class.std::num_put"*, %"class.std::num_get"* }
%"class.std::ios_base" = type { i32 (...)**, i64, i64, i32, i32, i32, %"struct.std::ios_base::_Callback_list"*, %"struct.std::ios_base::_Words", [8 x %"struct.std::ios_base::_Words"], i32, %"struct.std::ios_base::_Words"*, %"class.std::locale" }
%"struct.std::ios_base::_Callback_list" = type { %"struct.std::ios_base::_Callback_list"*, void (i32, %"class.std::ios_base"*, i32)*, i32, i32 }
%"struct.std::ios_base::_Words" = type { i8*, i64 }
%"class.std::locale" = type { %"class.std::locale::_Impl"* }
%"class.std::locale::_Impl" = type { i32, %"class.std::locale::facet"**, i64, %"class.std::locale::facet"**, i8** }
%"class.std::locale::facet" = type <{ i32 (...)**, i32, [4 x i8] }>
%"class.std::basic_ostream" = type { i32 (...)**, %"class.std::basic_ios" }
%"class.std::basic_streambuf" = type { i32 (...)**, i8*, i8*, i8*, i8*, i8*, i8*, %"class.std::locale" }
%"class.std::ctype" = type <{ %"class.std::locale::facet.base", [4 x i8], %struct.__locale_struct*, i8, [7 x i8], i32*, i32*, i16*, i8, [256 x i8], [256 x i8], i8, [6 x i8] }>
%"class.std::locale::facet.base" = type <{ i32 (...)**, i32 }>
%struct.__locale_struct = type { [13 x %struct.__locale_data*], i16*, i32*, i32*, [13 x i8*] }
%struct.__locale_data = type opaque
%"class.std::num_put" = type { %"class.std::locale::facet.base", [4 x i8] }
%"class.std::num_get" = type { %"class.std::locale::facet.base", [4 x i8] }

@_ZStL8__ioinit = internal global %"class.std::ios_base::Init" zeroinitializer, align 1
@__dso_handle = external hidden global i8
@_ZSt3cin = external dso_local global %"class.std::basic_istream", align 8
@_ZSt4cout = external dso_local global %"class.std::basic_ostream", align 8
@llvm.global_ctors = appending global [1 x { i32, void ()*, i8* }] [{ i32, void ()*, i8* } { i32 65535, void ()* @_GLOBAL__sub_I_2560.cpp, i8* null }]

; Function Attrs: noinline uwtable
define internal void @__cxx_global_var_init() #0 section ".text.startup" {
  call void @_ZNSt8ios_base4InitC1Ev(%"class.std::ios_base::Init"* @_ZStL8__ioinit)
  %1 = call i32 @__cxa_atexit(void (i8*)* bitcast (void (%"class.std::ios_base::Init"*)* @_ZNSt8ios_base4InitD1Ev to void (i8*)*), i8* getelementptr inbounds (%"class.std::ios_base::Init", %"class.std::ios_base::Init"* @_ZStL8__ioinit, i32 0, i32 0), i8* @__dso_handle) #3
  ret void
}

declare dso_local void @_ZNSt8ios_base4InitC1Ev(%"class.std::ios_base::Init"*) unnamed_addr #1

; Function Attrs: nounwind
declare dso_local void @_ZNSt8ios_base4InitD1Ev(%"class.std::ios_base::Init"*) unnamed_addr #2

; Function Attrs: nounwind
declare dso_local i32 @__cxa_atexit(void (i8*)*, i8*, i8*) #3

; Function Attrs: noinline norecurse uwtable
define dso_local i32 @main() #4 {
  %1 = alloca i32, align 4
  %2 = alloca i32, align 4
  %3 = alloca i32, align 4
  %4 = alloca i32, align 4
  %5 = alloca i32, align 4
  store i32 0, i32* %1, align 4
  store i32 13, i32* %5, align 4
  %6 = call dereferenceable(280) %"class.std::basic_istream"* @_ZNSirsERi(%"class.std::basic_istream"* @_ZSt3cin, i32* dereferenceable(4) %2)
  store i32 0, i32* %3, align 4
  br label %7

7:                                                ; preds = %63, %0
  %8 = load i32, i32* %3, align 4
  %9 = icmp sle i32 %8, 11
  br i1 %9, label %10, label %66

10:                                               ; preds = %7
  %11 = load i32, i32* %3, align 4
  %12 = icmp eq i32 %11, 1
  br i1 %12, label %28, label %13

13:                                               ; preds = %10
  %14 = load i32, i32* %3, align 4
  %15 = icmp eq i32 %14, 3
  br i1 %15, label %28, label %16

16:                                               ; preds = %13
  %17 = load i32, i32* %3, align 4
  %18 = icmp eq i32 %17, 5
  br i1 %18, label %28, label %19

19:                                               ; preds = %16
  %20 = load i32, i32* %3, align 4
  %21 = icmp eq i32 %20, 7
  br i1 %21, label %28, label %22

22:                                               ; preds = %19
  %23 = load i32, i32* %3, align 4
  %24 = icmp eq i32 %23, 8
  br i1 %24, label %28, label %25

25:                                               ; preds = %22
  %26 = load i32, i32* %3, align 4
  %27 = icmp eq i32 %26, 10
  br i1 %27, label %28, label %31

28:                                               ; preds = %25, %22, %19, %16, %13, %10
  %29 = load i32, i32* %5, align 4
  %30 = add nsw i32 %29, 31
  store i32 %30, i32* %5, align 4
  br label %48

31:                                               ; preds = %25
  %32 = load i32, i32* %3, align 4
  %33 = icmp eq i32 %32, 2
  br i1 %33, label %34, label %37

34:                                               ; preds = %31
  %35 = load i32, i32* %5, align 4
  %36 = add nsw i32 %35, 28
  store i32 %36, i32* %5, align 4
  br label %47

37:                                               ; preds = %31
  %38 = load i32, i32* %3, align 4
  %39 = icmp eq i32 %38, 0
  br i1 %39, label %40, label %43

40:                                               ; preds = %37
  %41 = load i32, i32* %5, align 4
  %42 = add nsw i32 %41, 0
  store i32 %42, i32* %5, align 4
  br label %46

43:                                               ; preds = %37
  %44 = load i32, i32* %5, align 4
  %45 = add nsw i32 %44, 30
  store i32 %45, i32* %5, align 4
  br label %46

46:                                               ; preds = %43, %40
  br label %47

47:                                               ; preds = %46, %34
  br label %48

48:                                               ; preds = %47, %28
  %49 = load i32, i32* %2, align 4
  %50 = load i32, i32* %5, align 4
  %51 = sub nsw i32 %50, 1
  %52 = srem i32 %51, 7
  %53 = add nsw i32 %49, %52
  %54 = srem i32 %53, 7
  store i32 %54, i32* %4, align 4
  %55 = load i32, i32* %4, align 4
  %56 = icmp eq i32 %55, 5
  br i1 %56, label %57, label %62

57:                                               ; preds = %48
  %58 = load i32, i32* %3, align 4
  %59 = add nsw i32 %58, 1
  %60 = call dereferenceable(272) %"class.std::basic_ostream"* @_ZNSolsEi(%"class.std::basic_ostream"* @_ZSt4cout, i32 %59)
  %61 = call dereferenceable(272) %"class.std::basic_ostream"* @_ZStlsISt11char_traitsIcEERSt13basic_ostreamIcT_ES5_c(%"class.std::basic_ostream"* dereferenceable(272) %60, i8 signext 10)
  br label %62

62:                                               ; preds = %57, %48
  br label %63

63:                                               ; preds = %62
  %64 = load i32, i32* %3, align 4
  %65 = add nsw i32 %64, 1
  store i32 %65, i32* %3, align 4
  br label %7

66:                                               ; preds = %7
  ret i32 0
}

declare dso_local dereferenceable(280) %"class.std::basic_istream"* @_ZNSirsERi(%"class.std::basic_istream"*, i32* dereferenceable(4)) #1

declare dso_local dereferenceable(272) %"class.std::basic_ostream"* @_ZStlsISt11char_traitsIcEERSt13basic_ostreamIcT_ES5_c(%"class.std::basic_ostream"* dereferenceable(272), i8 signext) #1

declare dso_local dereferenceable(272) %"class.std::basic_ostream"* @_ZNSolsEi(%"class.std::basic_ostream"*, i32) #1

; Function Attrs: noinline uwtable
define internal void @_GLOBAL__sub_I_2560.cpp() #0 section ".text.startup" {
  call void @__cxx_global_var_init()
  ret void
}


!llvm.module.flags = !{!0}
!llvm.ident = !{!1}

!0 = !{i32 1, !"wchar_size", i32 4}
!1 = !{!"clang version 10.0.0-4ubuntu1 "}
